; ModuleID = '30/1997.c'
source_filename = "30/1997.c"
target datalayout = "e-m:e-p270:32:32-p271:32:32-p272:64:64-i64:64-f80:128-n8:16:32:64-S128"
target triple = "x86_64-pc-linux-gnu"

@.str = private unnamed_addr constant [3 x i8] c"%d\00", align 1

; Function Attrs: noinline nounwind uwtable
define dso_local i32 @main() #0 {
  %1 = alloca i32, align 4
  %2 = alloca i32, align 4
  %3 = alloca i32, align 4
  %4 = alloca i32, align 4
  store i32 0, i32* %1, align 4
  store i32 0, i32* %4, align 4
  %5 = call i32 (i8*, ...) @__isoc99_scanf(i8* getelementptr inbounds ([3 x i8], [3 x i8]* @.str, i64 0, i64 0), i32* %3)
  store i32 1, i32* %2, align 4
  br label %6

6:                                                ; preds = %39, %0
  %7 = load i32, i32* %2, align 4
  %8 = load i32, i32* %3, align 4
  %9 = icmp sle i32 %7, %8
  br i1 %9, label %10, label %42

10:                                               ; preds = %6
  %11 = load i32, i32* %2, align 4
  %12 = srem i32 %11, 7
  %13 = icmp eq i32 %12, 0
  br i1 %13, label %38, label %14

14:                                               ; preds = %10
  %15 = load i32, i32* %2, align 4
  %16 = sub nsw i32 %15, 7
  %17 = srem i32 %16, 10
  %18 = icmp eq i32 %17, 0
  br i1 %18, label %38, label %19

19:                                               ; preds = %14
  %20 = load i32, i32* %2, align 4
  %21 = sdiv i32 %20, 7
  %22 = icmp eq i32 %21, 10
  br i1 %22, label %38, label %23

23:                                               ; preds = %19
  %24 = load i32, i32* %2, align 4
  %25 = icmp eq i32 %24, 78
  br i1 %25, label %38, label %26

26:                                               ; preds = %23
  %27 = load i32, i32* %2, align 4
  %28 = icmp eq i32 %27, 79
  br i1 %28, label %38, label %29

29:                                               ; preds = %26
  %30 = load i32, i32* %2, align 4
  %31 = icmp eq i32 %30, 77
  br i1 %31, label %38, label %32

32:                                               ; preds = %29
  %33 = load i32, i32* %4, align 4
  %34 = load i32, i32* %2, align 4
  %35 = load i32, i32* %2, align 4
  %36 = mul nsw i32 %34, %35
  %37 = add nsw i32 %33, %36
  store i32 %37, i32* %4, align 4
  br label %38

38:                                               ; preds = %32, %29, %26, %23, %19, %14, %10
  br label %39

39:                                               ; preds = %38
  %40 = load i32, i32* %2, align 4
  %41 = add nsw i32 %40, 1
  store i32 %41, i32* %2, align 4
  br label %6

42:                                               ; preds = %6
  %43 = load i32, i32* %4, align 4
  %44 = call i32 (i8*, ...) @printf(i8* getelementptr inbounds ([3 x i8], [3 x i8]* @.str, i64 0, i64 0), i32 %43)
  ret i32 0
}

declare dso_local i32 @__isoc99_scanf(i8*, ...) #1

declare dso_local i32 @printf(i8*, ...) #1


!llvm.module.flags = !{!0}
!llvm.ident = !{!1}

!0 = !{i32 1, !"wchar_size", i32 4}
!1 = !{!"clang version 10.0.0-4ubuntu1 "}
