; ModuleID = 'source-C-CXX/29/1997.c'
source_filename = "source-C-CXX/29/1997.c"
target datalayout = "e-m:e-p270:32:32-p271:32:32-p272:64:64-i64:64-f80:128-n8:16:32:64-S128"
target triple = "x86_64-pc-linux-gnu"

@.str = private unnamed_addr constant [3 x i8] c"%d\00", align 1

; Function Attrs: nofree nounwind sspstrong uwtable
define dso_local i32 @main() local_unnamed_addr #0 {
  %1 = alloca i32, align 4
  %2 = bitcast i32* %1 to i8*
  call void @llvm.lifetime.start.p0i8(i64 4, i8* nonnull %2) #4
  %3 = call i32 (i8*, ...) @__isoc99_scanf(i8* getelementptr inbounds ([3 x i8], [3 x i8]* @.str, i64 0, i64 0), i32* nonnull %1)
  %4 = load i32, i32* %1, align 4, !tbaa !5
  %5 = icmp slt i32 %4, 1
  br i1 %5, label %85, label %6

6:                                                ; preds = %0
  %7 = icmp ult i32 %4, 8
  br i1 %7, label %58, label %8

8:                                                ; preds = %6
  %9 = and i32 %4, -8
  %10 = or i32 %9, 1
  br label %11

11:                                               ; preds = %11, %8
  %12 = phi i32 [ 0, %8 ], [ %51, %11 ]
  %13 = phi <4 x i32> [ zeroinitializer, %8 ], [ %48, %11 ]
  %14 = phi <4 x i32> [ zeroinitializer, %8 ], [ %50, %11 ]
  %15 = phi <4 x i32> [ <i32 1, i32 2, i32 3, i32 4>, %8 ], [ %52, %11 ]
  %16 = add <4 x i32> %15, <i32 4, i32 4, i32 4, i32 4>
  %17 = urem <4 x i32> %15, <i32 7, i32 7, i32 7, i32 7>
  %18 = urem <4 x i32> %16, <i32 7, i32 7, i32 7, i32 7>
  %19 = icmp ne <4 x i32> %17, zeroinitializer
  %20 = icmp ne <4 x i32> %18, zeroinitializer
  %21 = add nsw <4 x i32> %15, <i32 -7, i32 -7, i32 -7, i32 -7>
  %22 = add <4 x i32> %15, <i32 -3, i32 -3, i32 -3, i32 -3>
  %23 = srem <4 x i32> %21, <i32 10, i32 10, i32 10, i32 10>
  %24 = srem <4 x i32> %22, <i32 10, i32 10, i32 10, i32 10>
  %25 = icmp ne <4 x i32> %23, zeroinitializer
  %26 = icmp ne <4 x i32> %24, zeroinitializer
  %27 = add nsw <4 x i32> %15, <i32 -70, i32 -70, i32 -70, i32 -70>
  %28 = add <4 x i32> %15, <i32 -66, i32 -66, i32 -66, i32 -66>
  %29 = icmp ugt <4 x i32> %27, <i32 6, i32 6, i32 6, i32 6>
  %30 = icmp ugt <4 x i32> %28, <i32 6, i32 6, i32 6, i32 6>
  %31 = and <4 x i32> %15, <i32 2147483646, i32 2147483646, i32 2147483646, i32 2147483646>
  %32 = and <4 x i32> %16, <i32 2147483646, i32 2147483646, i32 2147483646, i32 2147483646>
  %33 = icmp ne <4 x i32> %31, <i32 78, i32 78, i32 78, i32 78>
  %34 = icmp ne <4 x i32> %32, <i32 78, i32 78, i32 78, i32 78>
  %35 = icmp ne <4 x i32> %15, <i32 77, i32 77, i32 77, i32 77>
  %36 = icmp ne <4 x i32> %16, <i32 77, i32 77, i32 77, i32 77>
  %37 = and <4 x i1> %33, %29
  %38 = and <4 x i1> %34, %30
  %39 = mul nsw <4 x i32> %15, %15
  %40 = mul nsw <4 x i32> %16, %16
  %41 = select <4 x i1> %19, <4 x i1> %25, <4 x i1> zeroinitializer
  %42 = select <4 x i1> %20, <4 x i1> %26, <4 x i1> zeroinitializer
  %43 = select <4 x i1> %41, <4 x i1> %37, <4 x i1> zeroinitializer
  %44 = select <4 x i1> %43, <4 x i1> %35, <4 x i1> zeroinitializer
  %45 = select <4 x i1> %42, <4 x i1> %38, <4 x i1> zeroinitializer
  %46 = select <4 x i1> %45, <4 x i1> %36, <4 x i1> zeroinitializer
  %47 = select <4 x i1> %44, <4 x i32> %39, <4 x i32> zeroinitializer
  %48 = add <4 x i32> %13, %47
  %49 = select <4 x i1> %46, <4 x i32> %40, <4 x i32> zeroinitializer
  %50 = add <4 x i32> %14, %49
  %51 = add nuw i32 %12, 8
  %52 = add <4 x i32> %15, <i32 8, i32 8, i32 8, i32 8>
  %53 = icmp eq i32 %51, %9
  br i1 %53, label %54, label %11, !llvm.loop !9

54:                                               ; preds = %11
  %55 = add <4 x i32> %50, %48
  %56 = call i32 @llvm.vector.reduce.add.v4i32(<4 x i32> %55)
  %57 = icmp eq i32 %4, %9
  br i1 %57, label %85, label %58

58:                                               ; preds = %6, %54
  %59 = phi i32 [ 0, %6 ], [ %56, %54 ]
  %60 = phi i32 [ 1, %6 ], [ %10, %54 ]
  br label %61

61:                                               ; preds = %58, %81
  %62 = phi i32 [ %82, %81 ], [ %59, %58 ]
  %63 = phi i32 [ %83, %81 ], [ %60, %58 ]
  %64 = urem i32 %63, 7
  %65 = icmp eq i32 %64, 0
  br i1 %65, label %81, label %66

66:                                               ; preds = %61
  %67 = add nsw i32 %63, -7
  %68 = srem i32 %67, 10
  %69 = icmp eq i32 %68, 0
  br i1 %69, label %81, label %70

70:                                               ; preds = %66
  %71 = add nsw i32 %63, -70
  %72 = icmp ult i32 %71, 7
  %73 = and i32 %63, 2147483646
  %74 = icmp eq i32 %73, 78
  %75 = or i1 %74, %72
  %76 = icmp eq i32 %63, 77
  %77 = select i1 %75, i1 true, i1 %76
  br i1 %77, label %81, label %78

78:                                               ; preds = %70
  %79 = mul nsw i32 %63, %63
  %80 = add nsw i32 %62, %79
  br label %81

81:                                               ; preds = %61, %66, %70, %78
  %82 = phi i32 [ %62, %61 ], [ %62, %66 ], [ %62, %70 ], [ %80, %78 ]
  %83 = add nuw i32 %63, 1
  %84 = icmp eq i32 %63, %4
  br i1 %84, label %85, label %61, !llvm.loop !12

85:                                               ; preds = %81, %54, %0
  %86 = phi i32 [ 0, %0 ], [ %56, %54 ], [ %82, %81 ]
  %87 = call i32 (i8*, ...) @printf(i8* nonnull dereferenceable(1) getelementptr inbounds ([3 x i8], [3 x i8]* @.str, i64 0, i64 0), i32 %86)
  call void @llvm.lifetime.end.p0i8(i64 4, i8* nonnull %2) #4
  ret i32 0
}

; Function Attrs: argmemonly mustprogress nofree nosync nounwind willreturn
declare void @llvm.lifetime.start.p0i8(i64 immarg, i8* nocapture) #1

; Function Attrs: nofree nounwind
declare noundef i32 @__isoc99_scanf(i8* nocapture noundef readonly, ...) local_unnamed_addr #2

; Function Attrs: nofree nounwind
declare noundef i32 @printf(i8* nocapture noundef readonly, ...) local_unnamed_addr #2

; Function Attrs: argmemonly mustprogress nofree nosync nounwind willreturn
declare void @llvm.lifetime.end.p0i8(i64 immarg, i8* nocapture) #1

; Function Attrs: nofree nosync nounwind readnone willreturn
declare i32 @llvm.vector.reduce.add.v4i32(<4 x i32>) #3


!llvm.module.flags = !{!0, !1, !2, !3}
!llvm.ident = !{!4}

!0 = !{i32 1, !"wchar_size", i32 4}
!1 = !{i32 7, !"PIC Level", i32 2}
!2 = !{i32 7, !"PIE Level", i32 2}
!3 = !{i32 7, !"uwtable", i32 1}
!4 = !{!"clang version 13.0.0"}
!5 = !{!6, !6, i64 0}
!6 = !{!"int", !7, i64 0}
!7 = !{!"omnipotent char", !8, i64 0}
!8 = !{!"Simple C/C++ TBAA"}
!9 = distinct !{!9, !10, !11}
!10 = !{!"llvm.loop.mustprogress"}
!11 = !{!"llvm.loop.isvectorized", i32 1}
!12 = distinct !{!12, !10, !13, !11}
!13 = !{!"llvm.loop.unroll.runtime.disable"}
